; Function Attrs: mustprogress nounwind uwtable
define hidden void @_ZN4cvc58internal19TConvProofGeneratorD2Ev(ptr noundef nonnull align 8 dereferenceable(801) %this) unnamed_addr #4 align 2 personality ptr @__gxx_personality_v0 {
entry:
  store ptr getelementptr inbounds ({ [6 x ptr], [8 x ptr] }, ptr @_ZTVN4cvc58internal19TConvProofGeneratorE, i64 0, i32 0, i64 2), ptr %this, align 8
  %add.ptr = getelementptr inbounds i8, ptr %this, i64 16
  store ptr getelementptr inbounds ({ [6 x ptr], [8 x ptr] }, ptr @_ZTVN4cvc58internal19TConvProofGeneratorE, i64 0, i32 1, i64 2), ptr %add.ptr, align 8
  %d_cache = getelementptr inbounds i8, ptr %this, i64 744
  %_M_parent.i.i.i.i = getelementptr inbounds i8, ptr %this, i64 760
  %0 = load ptr, ptr %_M_parent.i.i.i.i, align 8
  invoke void @_ZNSt8_Rb_treeIN4cvc58internal12NodeTemplateILb1EEESt4pairIKS3_St10shared_ptrINS1_9ProofNodeEEESt10_Select1stIS9_ESt4lessIS3_ESaIS9_EE8_M_eraseEPSt13_Rb_tree_nodeIS9_E(ptr noundef nonnull align 8 dereferenceable(48) %d_cache, ptr noundef %0)
          to label %_ZNSt3mapIN4cvc58internal12NodeTemplateILb1EEESt10shared_ptrINS1_9ProofNodeEESt4lessIS3_ESaISt4pairIKS3_S6_EEED2Ev.exit unwind label %terminate.lpad.i.i

terminate.lpad.i.i:                               ; preds = %entry
  %1 = landingpad { ptr, i32 }
          catch ptr null
  %2 = extractvalue { ptr, i32 } %1, 0
  tail call void @__clang_call_terminate(ptr %2) #22
  unreachable

_ZNSt3mapIN4cvc58internal12NodeTemplateILb1EEESt10shared_ptrINS1_9ProofNodeEESt4lessIS3_ESaISt4pairIKS3_S6_EEED2Ev.exit: ; preds = %entry
  %d_name = getelementptr inbounds i8, ptr %this, i64 712
  tail call void @_ZNSt7__cxx1112basic_stringIcSt11char_traitsIcESaIcEED1Ev(ptr noundef nonnull align 8 dereferenceable(32) %d_name) #21
  %d_postRewriteMap = getelementptr inbounds i8, ptr %this, i64 592
  tail call void @_ZN4cvc57context9CDHashMapINS_8internal12NodeTemplateILb1EEES4_St4hashIS4_EED2Ev(ptr noundef nonnull align 8 dereferenceable(112) %d_postRewriteMap) #21
  %d_preRewriteMap = getelementptr inbounds i8, ptr %this, i64 480
  tail call void @_ZN4cvc57context9CDHashMapINS_8internal12NodeTemplateILb1EEES4_St4hashIS4_EED2Ev(ptr noundef nonnull align 8 dereferenceable(112) %d_preRewriteMap) #21
  %d_proof = getelementptr inbounds i8, ptr %this, i64 72
  tail call void @_ZN4cvc58internal11LazyCDProofD1Ev(ptr noundef nonnull align 8 dereferenceable(408) %d_proof) #21
  %d_context = getelementptr inbounds i8, ptr %this, i64 24
  tail call void @_ZN4cvc57context7ContextD1Ev(ptr noundef nonnull align 8 dereferenceable(48) %d_context) #21
  tail call void @_ZN4cvc58internal14ProofGeneratorD2Ev(ptr noundef nonnull align 8 dereferenceable(8) %add.ptr) #21
  ret void
}